; Function Attrs: mustprogress uwtable
define hidden noalias noundef ptr @_ZN7datalog21table_relation_plugin18mk_filter_equal_fnERKNS_13relation_baseERKP3appj(ptr noundef nonnull readonly align 8 captures(none) dereferenceable(48) %0, ptr noundef nonnull readonly align 8 captures(none) dereferenceable(28) %1, ptr noundef nonnull align 8 dereferenceable(8) %2, i32 noundef %3) unnamed_addr #3 align 2 personality ptr @__gxx_personality_v0 {
  %5 = alloca i64, align 8
  %6 = getelementptr inbounds nuw i8, ptr %1, i64 8
  %7 = load ptr, ptr %6, align 8, !tbaa !54
  %8 = getelementptr inbounds nuw i8, ptr %7, i64 32
  %9 = load i32, ptr %8, align 8, !tbaa !55
  %10 = icmp eq i32 %9, 1
  br i1 %10, label %11, label %24

11:                                               ; preds = %4
  call void @llvm.lifetime.start.p0(i64 8, ptr nonnull %5) #21
  %12 = getelementptr inbounds nuw i8, ptr %0, i64 24
  %13 = load ptr, ptr %12, align 8, !tbaa !23
  %14 = getelementptr inbounds nuw i8, ptr %1, i64 16
  %15 = load ptr, ptr %14, align 8, !tbaa !36
  %16 = zext i32 %3 to i64
  %17 = getelementptr inbounds nuw ptr, ptr %15, i64 %16
  call void @_ZN7datalog16relation_manager17relation_to_tableERKP4sortRKP3appRm(ptr noundef nonnull align 8 dereferenceable(200) %13, ptr noundef nonnull align 8 dereferenceable(8) %17, ptr noundef nonnull align 8 dereferenceable(8) %2, ptr noundef nonnull align 8 dereferenceable(8) %5)
  %18 = load ptr, ptr %12, align 8, !tbaa !23
  %19 = getelementptr inbounds nuw i8, ptr %1, i64 32
  %20 = load ptr, ptr %19, align 8, !tbaa !47
  %21 = call noundef ptr @_ZN7datalog16relation_manager18mk_filter_equal_fnERKNS_10table_baseERKmj(ptr noundef nonnull align 8 dereferenceable(200) %18, ptr noundef nonnull align 8 dereferenceable(36) %20, ptr noundef nonnull align 8 dereferenceable(8) %5, i32 noundef %3)
  %22 = call noalias noundef ptr @_ZN6memory8allocateEm(i64 noundef 16)
  store ptr getelementptr inbounds nuw inrange(-16, 40) (i8, ptr @_ZTVN7datalog21table_relation_plugin13tr_mutator_fnE, i64 16), ptr %22, align 8, !tbaa !32
  %23 = getelementptr inbounds nuw i8, ptr %22, i64 8
  store ptr %21, ptr %23, align 8, !tbaa !72
  call void @llvm.lifetime.end.p0(i64 8, ptr nonnull %5) #21
  br label %24

24:                                               ; preds = %4, %11
  %.0 = phi ptr [ %22, %11 ], [ null, %4 ]
  ret ptr %.0
}